target datalayout = "e-m:e-p270:32:32-p271:32:32-p272:64:64-i64:64-i128:128-f80:128-n8:16:32:64-S128"
target triple = "x86_64-pc-linux-gnu"

%struct.lua_State = type { %struct.GCRef, i8, i8, i8, i8, %struct.MRef, %struct.GCRef, ptr, ptr, %struct.MRef, %struct.MRef, %struct.GCRef, %struct.GCRef, ptr, i32 }
%struct.MRef = type { i64 }
%struct.GCRef = type { i64 }
%union.TValue = type { i64 }
%struct.GCstr = type { %struct.GCRef, i8, i8, i8, i8, i32, i32, i32 }
%struct.global_State = type { ptr, ptr, %struct.GCState, %struct.GCstr, i8, i8, i8, i8, %struct.StrInternState, i32, %struct.GCRef, %struct.SBuf, %union.TValue, %union.TValue, %struct.Node, %union.TValue, %struct.GCupval, i32, i32, ptr, ptr, ptr, i32, i32, %struct.GCRef, %struct.MRef, %struct.MRef, %struct.PRNGState, [39 x %struct.GCRef] }
%struct.GCState = type { i64, i64, i8, i8, i8, i8, i32, %struct.GCRef, %struct.MRef, %struct.GCRef, %struct.GCRef, %struct.GCRef, %struct.GCRef, i64, i64, i32, i32, %struct.MRef }
%struct.StrInternState = type { ptr, i32, i32, i32, i8, i8, i8, i8, i64 }
%struct.SBuf = type { ptr, ptr, ptr, %struct.MRef }
%struct.Node = type { %union.TValue, %union.TValue, %struct.MRef }
%struct.GCupval = type { %struct.GCRef, i8, i8, i8, i8, %union.anon, %struct.MRef, i32 }
%union.anon = type { %struct.anon.1 }
%struct.anon.1 = type { %struct.GCRef, %struct.GCRef }
%struct.PRNGState = type { [4 x i64] }

; Function Attrs: nounwind uwtable
define internal i32 @lj_cf_buffer_decode(ptr noundef %0) #0 {
  %2 = alloca ptr, align 8
  %3 = alloca ptr, align 8
  store ptr %0, ptr %2, align 8, !tbaa !4
  call void @llvm.lifetime.start.p0(i64 8, ptr %3) #8
  %4 = load ptr, ptr %2, align 8, !tbaa !4
  %5 = call ptr @lj_lib_checkstrx(ptr noundef %4, i32 noundef 1)
  store ptr %5, ptr %3, align 8, !tbaa !29
  %6 = load ptr, ptr %2, align 8, !tbaa !4
  %7 = getelementptr inbounds nuw %struct.lua_State, ptr %6, i32 0, i32 8
  %8 = load ptr, ptr %7, align 8, !tbaa !18
  %9 = getelementptr inbounds nuw %union.TValue, ptr %8, i32 1
  store ptr %9, ptr %7, align 8, !tbaa !18
  store i64 -1, ptr %8, align 8, !tbaa !26
  %10 = load ptr, ptr %2, align 8, !tbaa !4
  %11 = load ptr, ptr %2, align 8, !tbaa !4
  %12 = getelementptr inbounds nuw %struct.lua_State, ptr %11, i32 0, i32 8
  %13 = load ptr, ptr %12, align 8, !tbaa !18
  %14 = getelementptr inbounds %union.TValue, ptr %13, i64 -1
  %15 = load ptr, ptr %3, align 8, !tbaa !29
  call void @lj_serialize_decode(ptr noundef %10, ptr noundef %14, ptr noundef %15)
  %16 = load ptr, ptr %2, align 8, !tbaa !4
  %17 = getelementptr inbounds nuw %struct.lua_State, ptr %16, i32 0, i32 5
  %18 = getelementptr inbounds nuw %struct.MRef, ptr %17, i32 0, i32 0
  %19 = load i64, ptr %18, align 8, !tbaa !36
  %20 = inttoptr i64 %19 to ptr
  %21 = getelementptr inbounds nuw %struct.global_State, ptr %20, i32 0, i32 2
  %22 = getelementptr inbounds nuw %struct.GCState, ptr %21, i32 0, i32 0
  %23 = load i64, ptr %22, align 8, !tbaa !41
  %24 = load ptr, ptr %2, align 8, !tbaa !4
  %25 = getelementptr inbounds nuw %struct.lua_State, ptr %24, i32 0, i32 5
  %26 = getelementptr inbounds nuw %struct.MRef, ptr %25, i32 0, i32 0
  %27 = load i64, ptr %26, align 8, !tbaa !36
  %28 = inttoptr i64 %27 to ptr
  %29 = getelementptr inbounds nuw %struct.global_State, ptr %28, i32 0, i32 2
  %30 = getelementptr inbounds nuw %struct.GCState, ptr %29, i32 0, i32 1
  %31 = load i64, ptr %30, align 8, !tbaa !50
  %32 = icmp uge i64 %23, %31
  %33 = xor i1 %32, true
  %34 = xor i1 %33, true
  %35 = zext i1 %34 to i32
  %36 = sext i32 %35 to i64
  %37 = call i64 @llvm.expect.i64(i64 %36, i64 0)
  %38 = icmp ne i64 %37, 0
  br i1 %38, label %39, label %42

39:                                               ; preds = %1
  %40 = load ptr, ptr %2, align 8, !tbaa !4
  %41 = call i32 @lj_gc_step(ptr noundef %40)
  br label %42

42:                                               ; preds = %39, %1
  call void @llvm.lifetime.end.p0(i64 8, ptr %3) #8
  ret i32 1
}