; Function Attrs: nounwind uwtable
define internal noundef i32 @lj_cf_buffer_decode(ptr noundef %0) #0 {
  %2 = tail call ptr @lj_lib_checkstrx(ptr noundef %0, i32 noundef 1) #6
  %3 = getelementptr inbounds nuw i8, ptr %0, i64 40
  %4 = load ptr, ptr %3, align 8, !tbaa !14
  %5 = getelementptr inbounds nuw i8, ptr %4, i64 8
  store ptr %5, ptr %3, align 8, !tbaa !14
  store i64 -1, ptr %4, align 8, !tbaa !15
  %6 = load ptr, ptr %3, align 8, !tbaa !14
  %7 = getelementptr inbounds i8, ptr %6, i64 -8
  tail call void @lj_serialize_decode(ptr noundef %0, ptr noundef nonnull %7, ptr noundef %2) #6
  %8 = getelementptr inbounds nuw i8, ptr %0, i64 16
  %9 = load i64, ptr %8, align 8, !tbaa !19
  %10 = inttoptr i64 %9 to ptr
  %11 = getelementptr inbounds nuw i8, ptr %10, i64 16
  %12 = load i64, ptr %11, align 8, !tbaa !22
  %13 = getelementptr inbounds nuw i8, ptr %10, i64 24
  %14 = load i64, ptr %13, align 8, !tbaa !51
  %.not = icmp ult i64 %12, %14
  br i1 %.not, label %17, label %15, !prof !52

15:                                               ; preds = %1
  %16 = tail call i32 @lj_gc_step(ptr noundef nonnull %0) #6
  br label %17

17:                                               ; preds = %15, %1
  ret i32 1
}